target datalayout = "e-m:e-p270:32:32-p271:32:32-p272:64:64-i64:64-i128:128-f80:128-n8:16:32:64-S128"
target triple = "x86_64-pc-linux-gnu"

%struct.__va_list_tag = type { i32, i32, ptr, ptr }

@Curl_cfree = external global ptr, align 8

; Function Attrs: nounwind uwtable
define internal i32 @sendf(ptr noundef %0, ptr noundef %1, ...) #0 {
  %3 = alloca i32, align 4
  %4 = alloca ptr, align 8
  %5 = alloca ptr, align 8
  %6 = alloca i64, align 8
  %7 = alloca i64, align 8
  %8 = alloca i32, align 4
  %9 = alloca ptr, align 8
  %10 = alloca ptr, align 8
  %11 = alloca [1 x %struct.__va_list_tag], align 16
  %12 = alloca i32, align 4
  store ptr %0, ptr %4, align 8, !tbaa !3
  store ptr %1, ptr %5, align 8, !tbaa !10
  call void @llvm.lifetime.start.p0(i64 8, ptr %6) #5
  call void @llvm.lifetime.start.p0(i64 8, ptr %7) #5
  call void @llvm.lifetime.start.p0(i64 4, ptr %8) #5
  store i32 0, ptr %8, align 4, !tbaa !82
  call void @llvm.lifetime.start.p0(i64 8, ptr %9) #5
  call void @llvm.lifetime.start.p0(i64 8, ptr %10) #5
  call void @llvm.lifetime.start.p0(i64 24, ptr %11) #5
  %13 = getelementptr inbounds [1 x %struct.__va_list_tag], ptr %11, i64 0, i64 0
  call void @llvm.va_start.p0(ptr %13)
  %14 = load ptr, ptr %5, align 8, !tbaa !10
  %15 = getelementptr inbounds [1 x %struct.__va_list_tag], ptr %11, i64 0, i64 0
  %16 = call ptr @curl_mvaprintf(ptr noundef %14, ptr noundef %15)
  store ptr %16, ptr %9, align 8, !tbaa !10
  %17 = getelementptr inbounds [1 x %struct.__va_list_tag], ptr %11, i64 0, i64 0
  call void @llvm.va_end.p0(ptr %17)
  %18 = load ptr, ptr %9, align 8, !tbaa !10
  %19 = icmp ne ptr %18, null
  br i1 %19, label %21, label %20

20:                                               ; preds = %2
  store i32 27, ptr %3, align 4
  store i32 1, ptr %12, align 4
  br label %53

21:                                               ; preds = %2
  store i64 0, ptr %6, align 8, !tbaa !91
  %22 = load ptr, ptr %9, align 8, !tbaa !10
  %23 = call i64 @strlen(ptr noundef %22) #6
  store i64 %23, ptr %7, align 8, !tbaa !91
  %24 = load ptr, ptr %9, align 8, !tbaa !10
  store ptr %24, ptr %10, align 8, !tbaa !10
  br label %25

25:                                               ; preds = %48, %21
  %26 = load ptr, ptr %4, align 8, !tbaa !3
  %27 = load ptr, ptr %10, align 8, !tbaa !10
  %28 = load i64, ptr %7, align 8, !tbaa !91
  %29 = call i32 @Curl_xfer_send(ptr noundef %26, ptr noundef %27, i64 noundef %28, i1 noundef zeroext false, ptr noundef %6)
  store i32 %29, ptr %8, align 4, !tbaa !82
  %30 = load i32, ptr %8, align 4, !tbaa !82
  %31 = icmp ne i32 %30, 0
  br i1 %31, label %32, label %33

32:                                               ; preds = %25
  br label %49

33:                                               ; preds = %25
  %34 = load ptr, ptr %4, align 8, !tbaa !3
  %35 = load ptr, ptr %10, align 8, !tbaa !10
  %36 = load i64, ptr %6, align 8, !tbaa !91
  call void @Curl_debug(ptr noundef %34, i32 noundef 4, ptr noundef %35, i64 noundef %36)
  %37 = load i64, ptr %6, align 8, !tbaa !91
  %38 = load i64, ptr %7, align 8, !tbaa !91
  %39 = icmp ne i64 %37, %38
  br i1 %39, label %40, label %47

40:                                               ; preds = %33
  %41 = load i64, ptr %6, align 8, !tbaa !91
  %42 = load i64, ptr %7, align 8, !tbaa !91
  %43 = sub i64 %42, %41
  store i64 %43, ptr %7, align 8, !tbaa !91
  %44 = load i64, ptr %6, align 8, !tbaa !91
  %45 = load ptr, ptr %10, align 8, !tbaa !10
  %46 = getelementptr inbounds nuw i8, ptr %45, i64 %44
  store ptr %46, ptr %10, align 8, !tbaa !10
  br label %48

47:                                               ; preds = %33
  br label %49

48:                                               ; preds = %40
  br label %25

49:                                               ; preds = %47, %32
  %50 = load ptr, ptr @Curl_cfree, align 8, !tbaa !89
  %51 = load ptr, ptr %9, align 8, !tbaa !10
  call void %50(ptr noundef %51)
  %52 = load i32, ptr %8, align 4, !tbaa !82
  store i32 %52, ptr %3, align 4
  store i32 1, ptr %12, align 4
  br label %53

53:                                               ; preds = %49, %20
  call void @llvm.lifetime.end.p0(i64 24, ptr %11) #5
  call void @llvm.lifetime.end.p0(i64 8, ptr %10) #5
  call void @llvm.lifetime.end.p0(i64 8, ptr %9) #5
  call void @llvm.lifetime.end.p0(i64 4, ptr %8) #5
  call void @llvm.lifetime.end.p0(i64 8, ptr %7) #5
  call void @llvm.lifetime.end.p0(i64 8, ptr %6) #5
  %54 = load i32, ptr %3, align 4
  ret i32 %54
}