; Function Attrs: nounwind uwtable
define internal i32 @sendf(ptr noundef %0, ptr noundef %1, ...) unnamed_addr #0 {
  %3 = alloca i64, align 8
  %4 = alloca [1 x %struct.__va_list_tag], align 16
  call void @llvm.lifetime.start.p0(i64 8, ptr nonnull %3) #5
  call void @llvm.lifetime.start.p0(i64 24, ptr nonnull %4) #5
  call void @llvm.va_start.p0(ptr nonnull %4)
  %5 = call ptr @curl_mvaprintf(ptr noundef %1, ptr noundef nonnull %4) #5
  call void @llvm.va_end.p0(ptr nonnull %4)
  %.not = icmp eq ptr %5, null
  br i1 %.not, label %16, label %6

6:                                                ; preds = %2
  store i64 0, ptr %3, align 8, !tbaa !86
  %7 = call i64 @strlen(ptr noundef nonnull dereferenceable(1) %5) #6
  %8 = call i32 @Curl_xfer_send(ptr noundef %0, ptr noundef nonnull %5, i64 noundef %7, i1 noundef zeroext false, ptr noundef nonnull %3) #5
  %.not1921 = icmp eq i32 %8, 0
  br i1 %.not1921, label %.lr.ph, label %._crit_edge

.lr.ph:                                           ; preds = %6, %11
  %.023 = phi ptr [ %13, %11 ], [ %5, %6 ]
  %.01622 = phi i64 [ %12, %11 ], [ %7, %6 ]
  %9 = load i64, ptr %3, align 8, !tbaa !86
  call void @Curl_debug(ptr noundef %0, i32 noundef 4, ptr noundef %.023, i64 noundef %9) #5
  %10 = load i64, ptr %3, align 8, !tbaa !86
  %.not20 = icmp eq i64 %10, %.01622
  br i1 %.not20, label %._crit_edge, label %11

11:                                               ; preds = %.lr.ph
  %12 = sub i64 %.01622, %10
  %13 = getelementptr inbounds nuw i8, ptr %.023, i64 %10
  %14 = call i32 @Curl_xfer_send(ptr noundef %0, ptr noundef %13, i64 noundef %12, i1 noundef zeroext false, ptr noundef nonnull %3) #5
  %.not19 = icmp eq i32 %14, 0
  br i1 %.not19, label %.lr.ph, label %._crit_edge

._crit_edge:                                      ; preds = %11, %.lr.ph, %6
  %.lcssa = phi i32 [ %8, %6 ], [ 0, %.lr.ph ], [ %14, %11 ]
  %15 = load ptr, ptr @Curl_cfree, align 8, !tbaa !85
  call void %15(ptr noundef nonnull %5) #5
  br label %16

16:                                               ; preds = %2, %._crit_edge
  %.015 = phi i32 [ %.lcssa, %._crit_edge ], [ 27, %2 ]
  call void @llvm.lifetime.end.p0(i64 24, ptr nonnull %4) #5
  call void @llvm.lifetime.end.p0(i64 8, ptr nonnull %3) #5
  ret i32 %.015
}